target datalayout = "e-m:e-p270:32:32-p271:32:32-p272:64:64-i64:64-i128:128-f80:128-n8:16:32:64-S128"
target triple = "x86_64-pc-linux-gnu"

%struct.ossl_passphrase_data_st = type { i32, %union.anon, i8, ptr, i64 }
%union.anon = type { %struct.anon }
%struct.anon = type { ptr, i64 }
%struct.ossl_store_loader_st = type { ptr, ptr, ptr, ptr, ptr, ptr, ptr, ptr, ptr, ptr, ptr, ptr, ptr, i32, ptr, ptr, %struct.CRYPTO_REF_COUNT, ptr, ptr, ptr, ptr, ptr, ptr, ptr, ptr, ptr, ptr }
%struct.CRYPTO_REF_COUNT = type { i32 }

@.str.2 = private unnamed_addr constant [36 x i8] c"../openssl/crypto/store/store_lib.c\00", align 1
@__func__.OSSL_STORE_delete = private unnamed_addr constant [18 x i8] c"OSSL_STORE_delete\00", align 1

; Function Attrs: nounwind uwtable
define i32 @OSSL_STORE_delete(ptr noundef %0, ptr noundef %1, ptr noundef %2, ptr noundef %3, ptr noundef %4, ptr noundef %5) #0 {
  %7 = alloca i32, align 4
  %8 = alloca ptr, align 8
  %9 = alloca ptr, align 8
  %10 = alloca ptr, align 8
  %11 = alloca ptr, align 8
  %12 = alloca ptr, align 8
  %13 = alloca ptr, align 8
  %14 = alloca ptr, align 8
  %15 = alloca [256 x i8], align 16
  %16 = alloca ptr, align 8
  %17 = alloca i32, align 4
  %18 = alloca %struct.ossl_passphrase_data_st, align 8
  %19 = alloca i32, align 4
  %20 = alloca ptr, align 8
  %21 = alloca ptr, align 8
  store ptr %0, ptr %8, align 8, !tbaa !3
  store ptr %1, ptr %9, align 8, !tbaa !8
  store ptr %2, ptr %10, align 8, !tbaa !3
  store ptr %3, ptr %11, align 8, !tbaa !10
  store ptr %4, ptr %12, align 8, !tbaa !12
  store ptr %5, ptr %13, align 8, !tbaa !13
  call void @llvm.lifetime.start.p0(i64 8, ptr %14) #8
  store ptr null, ptr %14, align 8, !tbaa !15
  call void @llvm.lifetime.start.p0(i64 256, ptr %15) #8
  call void @llvm.lifetime.start.p0(i64 8, ptr %16) #8
  call void @llvm.lifetime.start.p0(i64 4, ptr %17) #8
  store i32 0, ptr %17, align 4, !tbaa !21
  call void @llvm.lifetime.start.p0(i64 48, ptr %18) #8
  call void @llvm.memset.p0.i64(ptr align 8 %18, i8 0, i64 48, i1 false)
  %22 = getelementptr inbounds [256 x i8], ptr %15, i64 0, i64 0
  %23 = load ptr, ptr %8, align 8, !tbaa !3
  %24 = call i64 @OPENSSL_strlcpy(ptr noundef %22, ptr noundef %23, i64 noundef 256)
  %25 = getelementptr inbounds [256 x i8], ptr %15, i64 0, i64 0
  %26 = call ptr @strchr(ptr noundef %25, i32 noundef 58) #9
  store ptr %26, ptr %16, align 8, !tbaa !3
  %27 = icmp ne ptr %26, null
  br i1 %27, label %28, label %31

28:                                               ; preds = %6
  %29 = load ptr, ptr %16, align 8, !tbaa !3
  %30 = getelementptr inbounds nuw i8, ptr %29, i32 1
  store ptr %30, ptr %16, align 8, !tbaa !3
  store i8 0, ptr %29, align 1, !tbaa !25
  br label %32

31:                                               ; preds = %6
  store i32 0, ptr %7, align 4
  store i32 1, ptr %19, align 4
  br label %71

32:                                               ; preds = %28
  %33 = load ptr, ptr %11, align 8, !tbaa !10
  %34 = icmp ne ptr %33, null
  br i1 %34, label %35, label %44

35:                                               ; preds = %32
  %36 = load ptr, ptr %11, align 8, !tbaa !10
  %37 = load ptr, ptr %12, align 8, !tbaa !12
  %38 = call i32 @ossl_pw_set_ui_method(ptr noundef %18, ptr noundef %36, ptr noundef %37)
  %39 = icmp ne i32 %38, 0
  br i1 %39, label %40, label %43

40:                                               ; preds = %35
  %41 = call i32 @ossl_pw_enable_passphrase_caching(ptr noundef %18)
  %42 = icmp ne i32 %41, 0
  br i1 %42, label %44, label %43

43:                                               ; preds = %40, %35
  call void @ERR_new()
  call void @ERR_set_debug(ptr noundef @.str.2, i32 noundef 515, ptr noundef @__func__.OSSL_STORE_delete)
  call void (i32, i32, ptr, ...) @ERR_set_error(i32 noundef 44, i32 noundef 524303, ptr noundef null)
  store i32 0, ptr %7, align 4
  store i32 1, ptr %19, align 4
  br label %71

44:                                               ; preds = %40, %32
  %45 = load ptr, ptr %9, align 8, !tbaa !8
  %46 = getelementptr inbounds [256 x i8], ptr %15, i64 0, i64 0
  %47 = load ptr, ptr %10, align 8, !tbaa !3
  %48 = call ptr @OSSL_STORE_LOADER_fetch(ptr noundef %45, ptr noundef %46, ptr noundef %47)
  store ptr %48, ptr %14, align 8, !tbaa !15
  %49 = load ptr, ptr %14, align 8, !tbaa !15
  %50 = icmp ne ptr %49, null
  br i1 %50, label %51, label %68

51:                                               ; preds = %44
  %52 = load ptr, ptr %14, align 8, !tbaa !15
  %53 = getelementptr inbounds nuw %struct.ossl_store_loader_st, ptr %52, i32 0, i32 25
  %54 = load ptr, ptr %53, align 8, !tbaa !90
  %55 = icmp ne ptr %54, null
  br i1 %55, label %56, label %68

56:                                               ; preds = %51
  call void @llvm.lifetime.start.p0(i64 8, ptr %20) #8
  %57 = load ptr, ptr %14, align 8, !tbaa !15
  %58 = call ptr @OSSL_STORE_LOADER_get0_provider(ptr noundef %57)
  store ptr %58, ptr %20, align 8, !tbaa !32
  call void @llvm.lifetime.start.p0(i64 8, ptr %21) #8
  %59 = load ptr, ptr %20, align 8, !tbaa !32
  %60 = call ptr @OSSL_PROVIDER_get0_provider_ctx(ptr noundef %59)
  store ptr %60, ptr %21, align 8, !tbaa !12
  %61 = load ptr, ptr %14, align 8, !tbaa !15
  %62 = getelementptr inbounds nuw %struct.ossl_store_loader_st, ptr %61, i32 0, i32 25
  %63 = load ptr, ptr %62, align 8, !tbaa !90
  %64 = load ptr, ptr %21, align 8, !tbaa !12
  %65 = load ptr, ptr %8, align 8, !tbaa !3
  %66 = load ptr, ptr %13, align 8, !tbaa !13
  %67 = call i32 %63(ptr noundef %64, ptr noundef %65, ptr noundef %66, ptr noundef @ossl_pw_passphrase_callback_dec, ptr noundef %18)
  store i32 %67, ptr %17, align 4, !tbaa !21
  call void @llvm.lifetime.end.p0(i64 8, ptr %21) #8
  call void @llvm.lifetime.end.p0(i64 8, ptr %20) #8
  br label %68

68:                                               ; preds = %56, %51, %44
  call void @ossl_pw_clear_passphrase_cache(ptr noundef %18)
  %69 = load ptr, ptr %14, align 8, !tbaa !15
  call void @OSSL_STORE_LOADER_free(ptr noundef %69)
  %70 = load i32, ptr %17, align 4, !tbaa !21
  store i32 %70, ptr %7, align 4
  store i32 1, ptr %19, align 4
  br label %71

71:                                               ; preds = %68, %43, %31
  call void @llvm.lifetime.end.p0(i64 48, ptr %18) #8
  call void @llvm.lifetime.end.p0(i64 4, ptr %17) #8
  call void @llvm.lifetime.end.p0(i64 8, ptr %16) #8
  call void @llvm.lifetime.end.p0(i64 256, ptr %15) #8
  call void @llvm.lifetime.end.p0(i64 8, ptr %14) #8
  %72 = load i32, ptr %7, align 4
  ret i32 %72
}