; Function Attrs: nounwind uwtable
define i32 @OSSL_STORE_delete(ptr noundef %0, ptr noundef %1, ptr noundef %2, ptr noundef %3, ptr noundef %4, ptr noundef %5) local_unnamed_addr #0 {
  %7 = alloca [256 x i8], align 16
  %8 = alloca %struct.ossl_passphrase_data_st, align 8
  call void @llvm.lifetime.start.p0(i64 256, ptr nonnull %7) #9
  call void @llvm.lifetime.start.p0(i64 48, ptr nonnull %8) #9
  call void @llvm.memset.p0.i64(ptr noundef nonnull align 8 dereferenceable(48) %8, i8 0, i64 48, i1 false)
  %9 = call i64 @OPENSSL_strlcpy(ptr noundef nonnull %7, ptr noundef %0, i64 noundef 256) #9
  %10 = call ptr @strchr(ptr noundef nonnull dereferenceable(1) %7, i32 noundef 58) #10
  %.not = icmp eq ptr %10, null
  br i1 %.not, label %28, label %11

11:                                               ; preds = %6
  store i8 0, ptr %10, align 1, !tbaa !8
  %.not21 = icmp eq ptr %3, null
  br i1 %.not21, label %17, label %12

12:                                               ; preds = %11
  %13 = call i32 @ossl_pw_set_ui_method(ptr noundef nonnull %8, ptr noundef nonnull %3, ptr noundef %4) #9
  %.not22 = icmp eq i32 %13, 0
  br i1 %.not22, label %16, label %14

14:                                               ; preds = %12
  %15 = call i32 @ossl_pw_enable_passphrase_caching(ptr noundef nonnull %8) #9
  %.not23 = icmp eq i32 %15, 0
  br i1 %.not23, label %16, label %17

16:                                               ; preds = %14, %12
  call void @ERR_new() #9
  call void @ERR_set_debug(ptr noundef nonnull @.str.2, i32 noundef 515, ptr noundef nonnull @__func__.OSSL_STORE_delete) #9
  call void (i32, i32, ptr, ...) @ERR_set_error(i32 noundef 44, i32 noundef 524303, ptr noundef null) #9
  br label %28

17:                                               ; preds = %14, %11
  %18 = call ptr @OSSL_STORE_LOADER_fetch(ptr noundef %1, ptr noundef nonnull %7, ptr noundef %2) #9
  %.not24 = icmp eq ptr %18, null
  br i1 %.not24, label %27, label %19

19:                                               ; preds = %17
  %20 = getelementptr inbounds nuw i8, ptr %18, i64 200
  %21 = load ptr, ptr %20, align 8, !tbaa !70
  %.not25 = icmp eq ptr %21, null
  br i1 %.not25, label %27, label %22

22:                                               ; preds = %19
  %23 = call ptr @OSSL_STORE_LOADER_get0_provider(ptr noundef nonnull %18) #9
  %24 = call ptr @OSSL_PROVIDER_get0_provider_ctx(ptr noundef %23) #9
  %25 = load ptr, ptr %20, align 8, !tbaa !70
  %26 = call i32 %25(ptr noundef %24, ptr noundef %0, ptr noundef %5, ptr noundef nonnull @ossl_pw_passphrase_callback_dec, ptr noundef nonnull %8) #9
  br label %27

27:                                               ; preds = %22, %19, %17
  %.017 = phi i32 [ %26, %22 ], [ 0, %19 ], [ 0, %17 ]
  call void @ossl_pw_clear_passphrase_cache(ptr noundef nonnull %8) #9
  call void @OSSL_STORE_LOADER_free(ptr noundef %18) #9
  br label %28

28:                                               ; preds = %6, %27, %16
  %.0 = phi i32 [ %.017, %27 ], [ 0, %16 ], [ 0, %6 ]
  call void @llvm.lifetime.end.p0(i64 48, ptr nonnull %8) #9
  call void @llvm.lifetime.end.p0(i64 256, ptr nonnull %7) #9
  ret i32 %.0
}